target datalayout = "e-m:e-p270:32:32-p271:32:32-p272:64:64-i64:64-i128:128-f80:128-n8:16:32:64-S128"
target triple = "x86_64-unknown-linux-gnu"

%"class.icu_75::ScriptSet" = type { [7 x i32] }

; Function Attrs: mustprogress nounwind uwtable
define internal noundef signext i8 @_ZL9U_FAILURE10UErrorCode(i32 noundef %code) #0 {
entry:
  %code.addr = alloca i32, align 4
  store i32 %code, ptr %code.addr, align 4
  %0 = load i32, ptr %code.addr, align 4
  %cmp = icmp sgt i32 %0, 0
  %conv = zext i1 %cmp to i8
  ret i8 %conv
}

; Function Attrs: mustprogress uwtable
define noundef signext i8 @_ZNK6icu_759ScriptSet4testE11UScriptCodeR10UErrorCode(ptr noundef nonnull align 4 dereferenceable(28) %this, i32 noundef %script, ptr noundef nonnull align 4 dereferenceable(4) %status) #2 align 2 {
entry:
  %retval = alloca i8, align 1
  %this.addr = alloca ptr, align 8
  %script.addr = alloca i32, align 4
  %status.addr = alloca ptr, align 8
  %index = alloca i32, align 4
  %bit = alloca i32, align 4
  store ptr %this, ptr %this.addr, align 8
  store i32 %script, ptr %script.addr, align 4
  store ptr %status, ptr %status.addr, align 8
  %this1 = load ptr, ptr %this.addr, align 8
  %0 = load ptr, ptr %status.addr, align 8
  %1 = load i32, ptr %0, align 4
  %call = call noundef signext i8 @_ZL9U_FAILURE10UErrorCode(i32 noundef %1)
  %tobool = icmp ne i8 %call, 0
  br i1 %tobool, label %if.then, label %if.end

if.then:                                          ; preds = %entry
  store i8 0, ptr %retval, align 1
  br label %return

if.end:                                           ; preds = %entry
  %2 = load i32, ptr %script.addr, align 4
  %cmp = icmp slt i32 %2, 0
  br i1 %cmp, label %if.then3, label %lor.lhs.false

lor.lhs.false:                                    ; preds = %if.end
  %3 = load i32, ptr %script.addr, align 4
  %cmp2 = icmp sge i32 %3, 224
  br i1 %cmp2, label %if.then3, label %if.end4

if.then3:                                         ; preds = %lor.lhs.false, %if.end
  %4 = load ptr, ptr %status.addr, align 8
  store i32 1, ptr %4, align 4
  store i8 0, ptr %retval, align 1
  br label %return

if.end4:                                          ; preds = %lor.lhs.false
  %5 = load i32, ptr %script.addr, align 4
  %div = sdiv i32 %5, 32
  store i32 %div, ptr %index, align 4
  %6 = load i32, ptr %script.addr, align 4
  %and = and i32 %6, 31
  %shl = shl i32 1, %and
  store i32 %shl, ptr %bit, align 4
  %bits = getelementptr inbounds %"class.icu_75::ScriptSet", ptr %this1, i32 0, i32 0
  %7 = load i32, ptr %index, align 4
  %idxprom = zext i32 %7 to i64
  %arrayidx = getelementptr inbounds [7 x i32], ptr %bits, i64 0, i64 %idxprom
  %8 = load i32, ptr %arrayidx, align 4
  %9 = load i32, ptr %bit, align 4
  %and5 = and i32 %8, %9
  %cmp6 = icmp ne i32 %and5, 0
  %conv = zext i1 %cmp6 to i8
  store i8 %conv, ptr %retval, align 1
  br label %return

return:                                           ; preds = %if.end4, %if.then3, %if.then
  %10 = load i8, ptr %retval, align 1
  ret i8 %10
}

; Function Attrs: mustprogress uwtable
define noundef i32 @_ZNK6icu_759ScriptSet10nextSetBitEi(ptr noundef nonnull align 4 dereferenceable(28) %this, i32 noundef %fromIndex) #2 align 2 {
entry:
  %retval = alloca i32, align 4
  %this.addr = alloca ptr, align 8
  %fromIndex.addr = alloca i32, align 4
  %status = alloca i32, align 4
  %scriptIndex = alloca i32, align 4
  store ptr %this, ptr %this.addr, align 8
  store i32 %fromIndex, ptr %fromIndex.addr, align 4
  %this1 = load ptr, ptr %this.addr, align 8
  %0 = load i32, ptr %fromIndex.addr, align 4
  %cmp = icmp slt i32 %0, 0
  br i1 %cmp, label %if.then, label %if.end

if.then:                                          ; preds = %entry
  store i32 -1, ptr %retval, align 4
  br label %return

if.end:                                           ; preds = %entry
  store i32 0, ptr %status, align 4
  %1 = load i32, ptr %fromIndex.addr, align 4
  store i32 %1, ptr %scriptIndex, align 4
  br label %for.cond

for.cond:                                         ; preds = %for.inc, %if.end
  %2 = load i32, ptr %scriptIndex, align 4
  %cmp2 = icmp slt i32 %2, 224
  br i1 %cmp2, label %for.body, label %for.end

for.body:                                         ; preds = %for.cond
  %3 = load i32, ptr %scriptIndex, align 4
  %call = call noundef signext i8 @_ZNK6icu_759ScriptSet4testE11UScriptCodeR10UErrorCode(ptr noundef nonnull align 4 dereferenceable(28) %this1, i32 noundef %3, ptr noundef nonnull align 4 dereferenceable(4) %status)
  %tobool = icmp ne i8 %call, 0
  br i1 %tobool, label %if.then3, label %if.end4

if.then3:                                         ; preds = %for.body
  %4 = load i32, ptr %scriptIndex, align 4
  store i32 %4, ptr %retval, align 4
  br label %return

if.end4:                                          ; preds = %for.body
  br label %for.inc

for.inc:                                          ; preds = %if.end4
  %5 = load i32, ptr %scriptIndex, align 4
  %inc = add nsw i32 %5, 1
  store i32 %inc, ptr %scriptIndex, align 4
  br label %for.cond, !llvm.loop !13

for.end:                                          ; preds = %for.cond
  store i32 -1, ptr %retval, align 4
  br label %return

return:                                           ; preds = %for.end, %if.then3, %if.then
  %6 = load i32, ptr %retval, align 4
  ret i32 %6
}