; Function Attrs: mustprogress nofree norecurse nosync nounwind willreturn memory(argmem: read) uwtable
define noundef i32 @_ZNK6icu_759ScriptSet10nextSetBitEi(ptr nocapture noundef nonnull readonly align 4 dereferenceable(28) %this, i32 noundef %fromIndex) local_unnamed_addr #5 align 2 {
entry:
  %or.cond = icmp ult i32 %fromIndex, 224
  br i1 %or.cond, label %for.body, label %return

for.body:                                         ; preds = %entry, %for.inc
  %scriptIndex.011 = phi i32 [ %inc, %for.inc ], [ %fromIndex, %entry ]
  %status.010 = phi i32 [ %status.18, %for.inc ], [ 0, %entry ]
  %cmp.i.i = icmp slt i32 %status.010, 1
  br i1 %cmp.i.i, label %if.end.i, label %for.inc

if.end.i:                                         ; preds = %for.body
  %or.cond.i = icmp ugt i32 %scriptIndex.011, 223
  br i1 %or.cond.i, label %for.inc, label %_ZNK6icu_759ScriptSet4testE11UScriptCodeR10UErrorCode.exit

_ZNK6icu_759ScriptSet4testE11UScriptCodeR10UErrorCode.exit: ; preds = %if.end.i
  %div5.i = lshr i32 %scriptIndex.011, 5
  %and.i = and i32 %scriptIndex.011, 31
  %shl.i = shl nuw i32 1, %and.i
  %idxprom.i = zext nneg i32 %div5.i to i64
  %arrayidx.i = getelementptr inbounds [7 x i32], ptr %this, i64 0, i64 %idxprom.i
  %0 = load i32, ptr %arrayidx.i, align 4
  %and5.i = and i32 %0, %shl.i
  %cmp6.i.not = icmp eq i32 %and5.i, 0
  br i1 %cmp6.i.not, label %for.inc, label %return

for.inc:                                          ; preds = %if.end.i, %for.body, %_ZNK6icu_759ScriptSet4testE11UScriptCodeR10UErrorCode.exit
  %status.18 = phi i32 [ %status.010, %_ZNK6icu_759ScriptSet4testE11UScriptCodeR10UErrorCode.exit ], [ 1, %if.end.i ], [ %status.010, %for.body ]
  %inc = add i32 %scriptIndex.011, 1
  %exitcond.not = icmp eq i32 %inc, 224
  br i1 %exitcond.not, label %return, label %for.body, !llvm.loop !12

return:                                           ; preds = %_ZNK6icu_759ScriptSet4testE11UScriptCodeR10UErrorCode.exit, %for.inc, %entry
  %retval.0 = phi i32 [ -1, %entry ], [ %scriptIndex.011, %_ZNK6icu_759ScriptSet4testE11UScriptCodeR10UErrorCode.exit ], [ -1, %for.inc ]
  ret i32 %retval.0
}